target datalayout = "e-m:e-p270:32:32-p271:32:32-p272:64:64-i64:64-i128:128-f80:128-n8:16:32:64-S128"
target triple = "x86_64-pc-linux-gnu"

%struct.Kit_Sop_t_ = type { i32, i32, ptr }

; Function Attrs: inlinehint nounwind uwtable
define internal i32 @Kit_CubeHasLit(i32 noundef %0, i32 noundef %1) #2 {
  %3 = alloca i32, align 4
  %4 = alloca i32, align 4
  store i32 %0, ptr %3, align 4, !tbaa !10
  store i32 %1, ptr %4, align 4, !tbaa !10
  %5 = load i32, ptr %3, align 4, !tbaa !10
  %6 = load i32, ptr %4, align 4, !tbaa !10
  %7 = shl i32 1, %6
  %8 = and i32 %5, %7
  %9 = icmp ugt i32 %8, 0
  %10 = zext i1 %9 to i32
  ret i32 %10
}

; Function Attrs: inlinehint nounwind uwtable
define internal i32 @Kit_SopCube(ptr noundef %0, i32 noundef %1) #2 {
  %3 = alloca ptr, align 8
  %4 = alloca i32, align 4
  store ptr %0, ptr %3, align 8, !tbaa !3
  store i32 %1, ptr %4, align 4, !tbaa !10
  %5 = load ptr, ptr %3, align 8, !tbaa !3
  %6 = getelementptr inbounds nuw %struct.Kit_Sop_t_, ptr %5, i32 0, i32 2
  %7 = load ptr, ptr %6, align 8, !tbaa !15
  %8 = load i32, ptr %4, align 4, !tbaa !10
  %9 = sext i32 %8 to i64
  %10 = getelementptr inbounds i32, ptr %7, i64 %9
  %11 = load i32, ptr %10, align 4, !tbaa !10
  ret i32 %11
}

; Function Attrs: inlinehint nounwind uwtable
define internal i32 @Kit_SopCubeNum(ptr noundef %0) #2 {
  %2 = alloca ptr, align 8
  store ptr %0, ptr %2, align 8, !tbaa !3
  %3 = load ptr, ptr %2, align 8, !tbaa !3
  %4 = getelementptr inbounds nuw %struct.Kit_Sop_t_, ptr %3, i32 0, i32 1
  %5 = load i32, ptr %4, align 4, !tbaa !12
  ret i32 %5
}

; Function Attrs: nounwind uwtable
define i32 @Kit_SopWorstLiteral(ptr noundef %0, i32 noundef %1) #0 {
  %3 = alloca i32, align 4
  %4 = alloca ptr, align 8
  %5 = alloca i32, align 4
  %6 = alloca i32, align 4
  %7 = alloca i32, align 4
  %8 = alloca i32, align 4
  %9 = alloca i32, align 4
  %10 = alloca i32, align 4
  %11 = alloca i32, align 4
  %12 = alloca i32, align 4
  %13 = alloca i32, align 4
  store ptr %0, ptr %4, align 8, !tbaa !3
  store i32 %1, ptr %5, align 4, !tbaa !10
  call void @llvm.lifetime.start.p0(i64 4, ptr %6) #3
  call void @llvm.lifetime.start.p0(i64 4, ptr %7) #3
  call void @llvm.lifetime.start.p0(i64 4, ptr %8) #3
  call void @llvm.lifetime.start.p0(i64 4, ptr %9) #3
  call void @llvm.lifetime.start.p0(i64 4, ptr %10) #3
  call void @llvm.lifetime.start.p0(i64 4, ptr %11) #3
  call void @llvm.lifetime.start.p0(i64 4, ptr %12) #3
  store i32 1, ptr %12, align 4, !tbaa !10
  store i32 -1, ptr %9, align 4, !tbaa !10
  store i32 1000000, ptr %10, align 4, !tbaa !10
  store i32 0, ptr %7, align 4, !tbaa !10
  br label %14

14:                                               ; preds = %67, %2
  %15 = load i32, ptr %7, align 4, !tbaa !10
  %16 = load i32, ptr %5, align 4, !tbaa !10
  %17 = icmp slt i32 %15, %16
  br i1 %17, label %18, label %70

18:                                               ; preds = %14
  store i32 0, ptr %11, align 4, !tbaa !10
  store i32 0, ptr %8, align 4, !tbaa !10
  br label %19

19:                                               ; preds = %40, %18
  %20 = load i32, ptr %8, align 4, !tbaa !10
  %21 = load ptr, ptr %4, align 8, !tbaa !3
  %22 = call i32 @Kit_SopCubeNum(ptr noundef %21)
  %23 = icmp slt i32 %20, %22
  br i1 %23, label %24, label %29

24:                                               ; preds = %19
  %25 = load ptr, ptr %4, align 8, !tbaa !3
  %26 = load i32, ptr %8, align 4, !tbaa !10
  %27 = call i32 @Kit_SopCube(ptr noundef %25, i32 noundef %26)
  store i32 %27, ptr %6, align 4, !tbaa !10
  %28 = icmp ne i32 %27, 0
  br label %29

29:                                               ; preds = %24, %19
  %30 = phi i1 [ false, %19 ], [ %28, %24 ]
  br i1 %30, label %31, label %43

31:                                               ; preds = %29
  %32 = load i32, ptr %6, align 4, !tbaa !10
  %33 = load i32, ptr %7, align 4, !tbaa !10
  %34 = call i32 @Kit_CubeHasLit(i32 noundef %32, i32 noundef %33)
  %35 = icmp ne i32 %34, 0
  br i1 %35, label %36, label %39

36:                                               ; preds = %31
  %37 = load i32, ptr %11, align 4, !tbaa !10
  %38 = add nsw i32 %37, 1
  store i32 %38, ptr %11, align 4, !tbaa !10
  br label %39

39:                                               ; preds = %36, %31
  br label %40

40:                                               ; preds = %39
  %41 = load i32, ptr %8, align 4, !tbaa !10
  %42 = add nsw i32 %41, 1
  store i32 %42, ptr %8, align 4, !tbaa !10
  br label %19, !llvm.loop !37

43:                                               ; preds = %29
  %44 = load i32, ptr %11, align 4, !tbaa !10
  %45 = icmp slt i32 %44, 2
  br i1 %45, label %46, label %47

46:                                               ; preds = %43
  br label %67

47:                                               ; preds = %43
  %48 = load i32, ptr %12, align 4, !tbaa !10
  %49 = icmp ne i32 %48, 0
  br i1 %49, label %50, label %58

50:                                               ; preds = %47
  %51 = load i32, ptr %10, align 4, !tbaa !10
  %52 = load i32, ptr %11, align 4, !tbaa !10
  %53 = icmp sgt i32 %51, %52
  br i1 %53, label %54, label %57

54:                                               ; preds = %50
  %55 = load i32, ptr %11, align 4, !tbaa !10
  store i32 %55, ptr %10, align 4, !tbaa !10
  %56 = load i32, ptr %7, align 4, !tbaa !10
  store i32 %56, ptr %9, align 4, !tbaa !10
  br label %57

57:                                               ; preds = %54, %50
  br label %66

58:                                               ; preds = %47
  %59 = load i32, ptr %10, align 4, !tbaa !10
  %60 = load i32, ptr %11, align 4, !tbaa !10
  %61 = icmp sge i32 %59, %60
  br i1 %61, label %62, label %65

62:                                               ; preds = %58
  %63 = load i32, ptr %11, align 4, !tbaa !10
  store i32 %63, ptr %10, align 4, !tbaa !10
  %64 = load i32, ptr %7, align 4, !tbaa !10
  store i32 %64, ptr %9, align 4, !tbaa !10
  br label %65

65:                                               ; preds = %62, %58
  br label %66

66:                                               ; preds = %65, %57
  br label %67

67:                                               ; preds = %66, %46
  %68 = load i32, ptr %7, align 4, !tbaa !10
  %69 = add nsw i32 %68, 1
  store i32 %69, ptr %7, align 4, !tbaa !10
  br label %14, !llvm.loop !38

70:                                               ; preds = %14
  %71 = load i32, ptr %10, align 4, !tbaa !10
  %72 = icmp slt i32 %71, 1000000
  br i1 %72, label %73, label %75

73:                                               ; preds = %70
  %74 = load i32, ptr %9, align 4, !tbaa !10
  store i32 %74, ptr %3, align 4
  store i32 1, ptr %13, align 4
  br label %76

75:                                               ; preds = %70
  store i32 -1, ptr %3, align 4
  store i32 1, ptr %13, align 4
  br label %76

76:                                               ; preds = %75, %73
  call void @llvm.lifetime.end.p0(i64 4, ptr %12) #3
  call void @llvm.lifetime.end.p0(i64 4, ptr %11) #3
  call void @llvm.lifetime.end.p0(i64 4, ptr %10) #3
  call void @llvm.lifetime.end.p0(i64 4, ptr %9) #3
  call void @llvm.lifetime.end.p0(i64 4, ptr %8) #3
  call void @llvm.lifetime.end.p0(i64 4, ptr %7) #3
  call void @llvm.lifetime.end.p0(i64 4, ptr %6) #3
  %77 = load i32, ptr %3, align 4
  ret i32 %77
}