; Function Attrs: nofree norecurse nosync nounwind memory(read, inaccessiblemem: none) uwtable
define i32 @Kit_SopWorstLiteral(ptr noundef readonly captures(none) %0, i32 noundef %1) local_unnamed_addr #1 {
  %3 = icmp sgt i32 %1, 0
  br i1 %3, label %.preheader.lr.ph, label %._crit_edge

.preheader.lr.ph:                                 ; preds = %2
  %4 = getelementptr i8, ptr %0, i64 4
  %.val = load i32, ptr %4, align 4, !tbaa !3
  %5 = icmp sgt i32 %.val, 0
  br i1 %5, label %.preheader.lr.ph.split.us, label %._crit_edge

.preheader.lr.ph.split.us:                        ; preds = %.preheader.lr.ph
  %6 = getelementptr i8, ptr %0, i64 8
  %.val32.us = load ptr, ptr %6, align 8, !tbaa !12
  %wide.trip.count = zext nneg i32 %.val to i64
  br label %.preheader.us

.preheader.us:                                    ; preds = %.critedge.us, %.preheader.lr.ph.split.us
  %.02439.us = phi i32 [ 1000000, %.preheader.lr.ph.split.us ], [ %.125.us, %.critedge.us ]
  %.02638.us = phi i32 [ -1, %.preheader.lr.ph.split.us ], [ %.127.us, %.critedge.us ]
  %.02937.us = phi i32 [ 0, %.preheader.lr.ph.split.us ], [ %15, %.critedge.us ]
  br label %7

7:                                                ; preds = %.preheader.us, %10
  %indvars.iv = phi i64 [ 0, %.preheader.us ], [ %indvars.iv.next, %10 ]
  %.02334.us = phi i32 [ 0, %.preheader.us ], [ %spec.select.us, %10 ]
  %8 = getelementptr inbounds nuw i32, ptr %.val32.us, i64 %indvars.iv
  %9 = load i32, ptr %8, align 4, !tbaa !15
  %.not.us = icmp eq i32 %9, 0
  br i1 %.not.us, label %.critedge.us, label %10

10:                                               ; preds = %7
  %11 = lshr i32 %9, %.02937.us
  %12 = and i32 %11, 1
  %spec.select.us = add nuw nsw i32 %12, %.02334.us
  %indvars.iv.next = add nuw nsw i64 %indvars.iv, 1
  %exitcond.not = icmp eq i64 %indvars.iv.next, %wide.trip.count
  br i1 %exitcond.not, label %.critedge.us, label %7, !llvm.loop !33

.critedge.us:                                     ; preds = %7, %10
  %.023.lcssa.us = phi i32 [ %spec.select.us, %10 ], [ %.02334.us, %7 ]
  %13 = icmp samesign ugt i32 %.023.lcssa.us, 1
  %14 = icmp sgt i32 %.02439.us, %.023.lcssa.us
  %or.cond.us = select i1 %13, i1 %14, i1 false
  %.127.us = select i1 %or.cond.us, i32 %.02937.us, i32 %.02638.us
  %.125.us = select i1 %or.cond.us, i32 %.023.lcssa.us, i32 %.02439.us
  %15 = add nuw nsw i32 %.02937.us, 1
  %exitcond45.not = icmp eq i32 %15, %1
  br i1 %exitcond45.not, label %._crit_edge.loopexit, label %.preheader.us, !llvm.loop !34

._crit_edge.loopexit:                             ; preds = %.critedge.us
  %16 = icmp slt i32 %.125.us, 1000000
  %17 = select i1 %16, i32 %.127.us, i32 -1
  br label %._crit_edge

._crit_edge:                                      ; preds = %.preheader.lr.ph, %._crit_edge.loopexit, %2
  %.024.lcssa = phi i32 [ -1, %2 ], [ %17, %._crit_edge.loopexit ], [ -1, %.preheader.lr.ph ]
  ret i32 %.024.lcssa
}